; ModuleID = '58/4.c'
source_filename = "58/4.c"
target datalayout = "e-m:e-p270:32:32-p271:32:32-p272:64:64-i64:64-f80:128-n8:16:32:64-S128"
target triple = "x86_64-pc-linux-gnu"

@.str = private unnamed_addr constant [3 x i8] c"%d\00", align 1
@.str.1 = private unnamed_addr constant [3 x i8] c"1\0A\00", align 1
@.str.2 = private unnamed_addr constant [3 x i8] c"0\0A\00", align 1

; Function Attrs: noinline nounwind uwtable
define dso_local i32 @main() #0 {
  %1 = alloca i32, align 4
  %2 = alloca i32, align 4
  %3 = alloca i32, align 4
  %4 = alloca i32, align 4
  %5 = alloca i32, align 4
  %6 = alloca i32, align 4
  %7 = alloca i32, align 4
  %8 = alloca [1000 x [100 x i8]], align 16
  store i32 0, i32* %1, align 4
  %9 = call i32 (i8*, ...) @__isoc99_scanf(i8* getelementptr inbounds ([3 x i8], [3 x i8]* @.str, i64 0, i64 0), i32* %2)
  %10 = call i32 @getchar()
  store i32 0, i32* %3, align 4
  br label %11

11:                                               ; preds = %21, %0
  %12 = load i32, i32* %3, align 4
  %13 = load i32, i32* %2, align 4
  %14 = icmp slt i32 %12, %13
  br i1 %14, label %15, label %24

15:                                               ; preds = %11
  %16 = load i32, i32* %3, align 4
  %17 = sext i32 %16 to i64
  %18 = getelementptr inbounds [1000 x [100 x i8]], [1000 x [100 x i8]]* %8, i64 0, i64 %17
  %19 = getelementptr inbounds [100 x i8], [100 x i8]* %18, i64 0, i64 0
  %20 = call i32 (i8*, ...) bitcast (i32 (...)* @gets to i32 (i8*, ...)*)(i8* %19)
  br label %21

21:                                               ; preds = %15
  %22 = load i32, i32* %3, align 4
  %23 = add nsw i32 %22, 1
  store i32 %23, i32* %3, align 4
  br label %11

24:                                               ; preds = %11
  store i32 0, i32* %3, align 4
  br label %25

25:                                               ; preds = %176, %24
  %26 = load i32, i32* %3, align 4
  %27 = load i32, i32* %2, align 4
  %28 = icmp slt i32 %26, %27
  br i1 %28, label %29, label %179

29:                                               ; preds = %25
  %30 = load i32, i32* %3, align 4
  %31 = sext i32 %30 to i64
  %32 = getelementptr inbounds [1000 x [100 x i8]], [1000 x [100 x i8]]* %8, i64 0, i64 %31
  %33 = getelementptr inbounds [100 x i8], [100 x i8]* %32, i64 0, i64 0
  %34 = call i64 @strlen(i8* %33) #3
  %35 = trunc i64 %34 to i32
  store i32 %35, i32* %6, align 4
  store i32 0, i32* %4, align 4
  br label %36

36:                                               ; preds = %85, %29
  %37 = load i32, i32* %4, align 4
  %38 = load i32, i32* %6, align 4
  %39 = icmp slt i32 %37, %38
  br i1 %39, label %40, label %88

40:                                               ; preds = %36
  %41 = load i32, i32* %3, align 4
  %42 = sext i32 %41 to i64
  %43 = getelementptr inbounds [1000 x [100 x i8]], [1000 x [100 x i8]]* %8, i64 0, i64 %42
  %44 = load i32, i32* %4, align 4
  %45 = sext i32 %44 to i64
  %46 = getelementptr inbounds [100 x i8], [100 x i8]* %43, i64 0, i64 %45
  %47 = load i8, i8* %46, align 1
  %48 = sext i8 %47 to i32
  store i32 %48, i32* %5, align 4
  %49 = load i32, i32* %5, align 4
  %50 = icmp slt i32 %49, 123
  br i1 %50, label %51, label %55

51:                                               ; preds = %40
  %52 = load i32, i32* %5, align 4
  %53 = icmp sgt i32 %52, 96
  br i1 %53, label %54, label %55

54:                                               ; preds = %51
  store i32 0, i32* %7, align 4
  br label %84

55:                                               ; preds = %51, %40
  %56 = load i32, i32* %5, align 4
  %57 = icmp slt i32 %56, 91
  br i1 %57, label %58, label %62

58:                                               ; preds = %55
  %59 = load i32, i32* %5, align 4
  %60 = icmp sgt i32 %59, 64
  br i1 %60, label %61, label %62

61:                                               ; preds = %58
  store i32 0, i32* %7, align 4
  br label %83

62:                                               ; preds = %58, %55
  %63 = load i32, i32* %3, align 4
  %64 = sext i32 %63 to i64
  %65 = getelementptr inbounds [1000 x [100 x i8]], [1000 x [100 x i8]]* %8, i64 0, i64 %64
  %66 = load i32, i32* %4, align 4
  %67 = sext i32 %66 to i64
  %68 = getelementptr inbounds [100 x i8], [100 x i8]* %65, i64 0, i64 %67
  %69 = load i8, i8* %68, align 1
  %70 = sext i8 %69 to i32
  %71 = icmp eq i32 %70, 95
  br i1 %71, label %72, label %73

72:                                               ; preds = %62
  store i32 0, i32* %7, align 4
  br label %82

73:                                               ; preds = %62
  %74 = load i32, i32* %5, align 4
  %75 = icmp slt i32 %74, 58
  br i1 %75, label %76, label %80

76:                                               ; preds = %73
  %77 = load i32, i32* %5, align 4
  %78 = icmp sgt i32 %77, 47
  br i1 %78, label %79, label %80

79:                                               ; preds = %76
  store i32 0, i32* %7, align 4
  br label %81

80:                                               ; preds = %76, %73
  store i32 1, i32* %7, align 4
  br label %88

81:                                               ; preds = %79
  br label %82

82:                                               ; preds = %81, %72
  br label %83

83:                                               ; preds = %82, %61
  br label %84

84:                                               ; preds = %83, %54
  br label %85

85:                                               ; preds = %84
  %86 = load i32, i32* %4, align 4
  %87 = add nsw i32 %86, 1
  store i32 %87, i32* %4, align 4
  br label %36

88:                                               ; preds = %80, %36
  %89 = load i32, i32* %7, align 4
  %90 = icmp eq i32 %89, 0
  br i1 %90, label %91, label %173

91:                                               ; preds = %88
  %92 = load i32, i32* %3, align 4
  %93 = sext i32 %92 to i64
  %94 = getelementptr inbounds [1000 x [100 x i8]], [1000 x [100 x i8]]* %8, i64 0, i64 %93
  %95 = getelementptr inbounds [100 x i8], [100 x i8]* %94, i64 0, i64 0
  %96 = load i8, i8* %95, align 4
  %97 = sext i8 %96 to i32
  %98 = icmp ne i32 %97, 48
  br i1 %98, label %99, label %173

99:                                               ; preds = %91
  %100 = load i32, i32* %3, align 4
  %101 = sext i32 %100 to i64
  %102 = getelementptr inbounds [1000 x [100 x i8]], [1000 x [100 x i8]]* %8, i64 0, i64 %101
  %103 = getelementptr inbounds [100 x i8], [100 x i8]* %102, i64 0, i64 0
  %104 = load i8, i8* %103, align 4
  %105 = sext i8 %104 to i32
  %106 = icmp ne i32 %105, 49
  br i1 %106, label %107, label %173

107:                                              ; preds = %99
  %108 = load i32, i32* %3, align 4
  %109 = sext i32 %108 to i64
  %110 = getelementptr inbounds [1000 x [100 x i8]], [1000 x [100 x i8]]* %8, i64 0, i64 %109
  %111 = getelementptr inbounds [100 x i8], [100 x i8]* %110, i64 0, i64 0
  %112 = load i8, i8* %111, align 4
  %113 = sext i8 %112 to i32
  %114 = icmp ne i32 %113, 50
  br i1 %114, label %115, label %173

115:                                              ; preds = %107
  %116 = load i32, i32* %3, align 4
  %117 = sext i32 %116 to i64
  %118 = getelementptr inbounds [1000 x [100 x i8]], [1000 x [100 x i8]]* %8, i64 0, i64 %117
  %119 = getelementptr inbounds [100 x i8], [100 x i8]* %118, i64 0, i64 0
  %120 = load i8, i8* %119, align 4
  %121 = sext i8 %120 to i32
  %122 = icmp ne i32 %121, 51
  br i1 %122, label %123, label %173

123:                                              ; preds = %115
  %124 = load i32, i32* %3, align 4
  %125 = sext i32 %124 to i64
  %126 = getelementptr inbounds [1000 x [100 x i8]], [1000 x [100 x i8]]* %8, i64 0, i64 %125
  %127 = getelementptr inbounds [100 x i8], [100 x i8]* %126, i64 0, i64 0
  %128 = load i8, i8* %127, align 4
  %129 = sext i8 %128 to i32
  %130 = icmp ne i32 %129, 52
  br i1 %130, label %131, label %173

131:                                              ; preds = %123
  %132 = load i32, i32* %3, align 4
  %133 = sext i32 %132 to i64
  %134 = getelementptr inbounds [1000 x [100 x i8]], [1000 x [100 x i8]]* %8, i64 0, i64 %133
  %135 = getelementptr inbounds [100 x i8], [100 x i8]* %134, i64 0, i64 0
  %136 = load i8, i8* %135, align 4
  %137 = sext i8 %136 to i32
  %138 = icmp ne i32 %137, 53
  br i1 %138, label %139, label %173

139:                                              ; preds = %131
  %140 = load i32, i32* %3, align 4
  %141 = sext i32 %140 to i64
  %142 = getelementptr inbounds [1000 x [100 x i8]], [1000 x [100 x i8]]* %8, i64 0, i64 %141
  %143 = getelementptr inbounds [100 x i8], [100 x i8]* %142, i64 0, i64 0
  %144 = load i8, i8* %143, align 4
  %145 = sext i8 %144 to i32
  %146 = icmp ne i32 %145, 54
  br i1 %146, label %147, label %173

147:                                              ; preds = %139
  %148 = load i32, i32* %3, align 4
  %149 = sext i32 %148 to i64
  %150 = getelementptr inbounds [1000 x [100 x i8]], [1000 x [100 x i8]]* %8, i64 0, i64 %149
  %151 = getelementptr inbounds [100 x i8], [100 x i8]* %150, i64 0, i64 0
  %152 = load i8, i8* %151, align 4
  %153 = sext i8 %152 to i32
  %154 = icmp ne i32 %153, 55
  br i1 %154, label %155, label %173

155:                                              ; preds = %147
  %156 = load i32, i32* %3, align 4
  %157 = sext i32 %156 to i64
  %158 = getelementptr inbounds [1000 x [100 x i8]], [1000 x [100 x i8]]* %8, i64 0, i64 %157
  %159 = getelementptr inbounds [100 x i8], [100 x i8]* %158, i64 0, i64 0
  %160 = load i8, i8* %159, align 4
  %161 = sext i8 %160 to i32
  %162 = icmp ne i32 %161, 56
  br i1 %162, label %163, label %173

163:                                              ; preds = %155
  %164 = load i32, i32* %3, align 4
  %165 = sext i32 %164 to i64
  %166 = getelementptr inbounds [1000 x [100 x i8]], [1000 x [100 x i8]]* %8, i64 0, i64 %165
  %167 = getelementptr inbounds [100 x i8], [100 x i8]* %166, i64 0, i64 0
  %168 = load i8, i8* %167, align 4
  %169 = sext i8 %168 to i32
  %170 = icmp ne i32 %169, 57
  br i1 %170, label %171, label %173

171:                                              ; preds = %163
  %172 = call i32 (i8*, ...) @printf(i8* getelementptr inbounds ([3 x i8], [3 x i8]* @.str.1, i64 0, i64 0))
  br label %175

173:                                              ; preds = %163, %155, %147, %139, %131, %123, %115, %107, %99, %91, %88
  %174 = call i32 (i8*, ...) @printf(i8* getelementptr inbounds ([3 x i8], [3 x i8]* @.str.2, i64 0, i64 0))
  br label %175

175:                                              ; preds = %173, %171
  br label %176

176:                                              ; preds = %175
  %177 = load i32, i32* %3, align 4
  %178 = add nsw i32 %177, 1
  store i32 %178, i32* %3, align 4
  br label %25

179:                                              ; preds = %25
  %180 = call i32 @getchar()
  %181 = call i32 @getchar()
  %182 = load i32, i32* %1, align 4
  ret i32 %182
}

declare dso_local i32 @__isoc99_scanf(i8*, ...) #1

declare dso_local i32 @getchar() #1

declare dso_local i32 @gets(...) #1

; Function Attrs: nounwind readonly
declare dso_local i64 @strlen(i8*) #2

declare dso_local i32 @printf(i8*, ...) #1


!llvm.module.flags = !{!0}
!llvm.ident = !{!1}

!0 = !{i32 1, !"wchar_size", i32 4}
!1 = !{!"clang version 10.0.0-4ubuntu1 "}
